; ModuleID = '24/917.c'
source_filename = "24/917.c"
target datalayout = "e-m:e-p270:32:32-p271:32:32-p272:64:64-i64:64-f80:128-n8:16:32:64-S128"
target triple = "x86_64-pc-linux-gnu"

@.str = private unnamed_addr constant [4 x i8] c"%s\0A\00", align 1

; Function Attrs: noinline nounwind uwtable
define dso_local i32 @main() #0 {
  %1 = alloca i32, align 4
  %2 = alloca i32, align 4
  %3 = alloca i32, align 4
  %4 = alloca i32, align 4
  %5 = alloca i32, align 4
  %6 = alloca i32, align 4
  %7 = alloca i32, align 4
  %8 = alloca i32, align 4
  %9 = alloca i32, align 4
  %10 = alloca [100 x [100 x i8]], align 16
  %11 = alloca i8, align 1
  store i32 0, i32* %1, align 4
  store i32 0, i32* %2, align 4
  store i32 0, i32* %3, align 4
  store i32 0, i32* %6, align 4
  store i32 0, i32* %7, align 4
  br label %12

12:                                               ; preds = %48, %0
  %13 = call i32 @getchar()
  %14 = trunc i32 %13 to i8
  store i8 %14, i8* %11, align 1
  %15 = sext i8 %14 to i32
  %16 = icmp ne i32 %15, 10
  br i1 %16, label %17, label %49

17:                                               ; preds = %12
  %18 = load i32, i32* %3, align 4
  %19 = icmp ne i32 %18, 0
  br i1 %19, label %20, label %33

20:                                               ; preds = %17
  %21 = load i8, i8* %11, align 1
  %22 = sext i8 %21 to i32
  %23 = icmp eq i32 %22, 32
  br i1 %23, label %24, label %33

24:                                               ; preds = %20
  %25 = load i32, i32* %2, align 4
  %26 = sext i32 %25 to i64
  %27 = getelementptr inbounds [100 x [100 x i8]], [100 x [100 x i8]]* %10, i64 0, i64 %26
  %28 = load i32, i32* %3, align 4
  %29 = sext i32 %28 to i64
  %30 = getelementptr inbounds [100 x i8], [100 x i8]* %27, i64 0, i64 %29
  store i8 0, i8* %30, align 1
  %31 = load i32, i32* %2, align 4
  %32 = add nsw i32 %31, 1
  store i32 %32, i32* %2, align 4
  store i32 0, i32* %3, align 4
  br label %48

33:                                               ; preds = %20, %17
  %34 = load i8, i8* %11, align 1
  %35 = sext i8 %34 to i32
  %36 = icmp ne i32 %35, 32
  br i1 %36, label %37, label %47

37:                                               ; preds = %33
  %38 = load i8, i8* %11, align 1
  %39 = load i32, i32* %2, align 4
  %40 = sext i32 %39 to i64
  %41 = getelementptr inbounds [100 x [100 x i8]], [100 x [100 x i8]]* %10, i64 0, i64 %40
  %42 = load i32, i32* %3, align 4
  %43 = sext i32 %42 to i64
  %44 = getelementptr inbounds [100 x i8], [100 x i8]* %41, i64 0, i64 %43
  store i8 %38, i8* %44, align 1
  %45 = load i32, i32* %3, align 4
  %46 = add nsw i32 %45, 1
  store i32 %46, i32* %3, align 4
  br label %47

47:                                               ; preds = %37, %33
  br label %48

48:                                               ; preds = %47, %24
  br label %12

49:                                               ; preds = %12
  %50 = load i32, i32* %2, align 4
  %51 = sext i32 %50 to i64
  %52 = getelementptr inbounds [100 x [100 x i8]], [100 x [100 x i8]]* %10, i64 0, i64 %51
  %53 = load i32, i32* %3, align 4
  %54 = sext i32 %53 to i64
  %55 = getelementptr inbounds [100 x i8], [100 x i8]* %52, i64 0, i64 %54
  store i8 0, i8* %55, align 1
  %56 = getelementptr inbounds [100 x [100 x i8]], [100 x [100 x i8]]* %10, i64 0, i64 0
  %57 = getelementptr inbounds [100 x i8], [100 x i8]* %56, i64 0, i64 0
  %58 = call i64 @strlen(i8* %57) #3
  %59 = trunc i64 %58 to i32
  store i32 %59, i32* %5, align 4
  store i32 %59, i32* %4, align 4
  store i32 1, i32* %8, align 4
  br label %60

60:                                               ; preds = %85, %49
  %61 = load i32, i32* %8, align 4
  %62 = load i32, i32* %2, align 4
  %63 = icmp sle i32 %61, %62
  br i1 %63, label %64, label %88

64:                                               ; preds = %60
  %65 = load i32, i32* %8, align 4
  %66 = sext i32 %65 to i64
  %67 = getelementptr inbounds [100 x [100 x i8]], [100 x [100 x i8]]* %10, i64 0, i64 %66
  %68 = getelementptr inbounds [100 x i8], [100 x i8]* %67, i64 0, i64 0
  %69 = call i64 @strlen(i8* %68) #3
  %70 = trunc i64 %69 to i32
  store i32 %70, i32* %9, align 4
  %71 = load i32, i32* %9, align 4
  %72 = load i32, i32* %4, align 4
  %73 = icmp sgt i32 %71, %72
  br i1 %73, label %74, label %77

74:                                               ; preds = %64
  %75 = load i32, i32* %8, align 4
  store i32 %75, i32* %6, align 4
  %76 = load i32, i32* %9, align 4
  store i32 %76, i32* %4, align 4
  br label %77

77:                                               ; preds = %74, %64
  %78 = load i32, i32* %9, align 4
  %79 = load i32, i32* %5, align 4
  %80 = icmp slt i32 %78, %79
  br i1 %80, label %81, label %84

81:                                               ; preds = %77
  %82 = load i32, i32* %8, align 4
  store i32 %82, i32* %7, align 4
  %83 = load i32, i32* %9, align 4
  store i32 %83, i32* %5, align 4
  br label %84

84:                                               ; preds = %81, %77
  br label %85

85:                                               ; preds = %84
  %86 = load i32, i32* %8, align 4
  %87 = add nsw i32 %86, 1
  store i32 %87, i32* %8, align 4
  br label %60

88:                                               ; preds = %60
  %89 = load i32, i32* %6, align 4
  %90 = sext i32 %89 to i64
  %91 = getelementptr inbounds [100 x [100 x i8]], [100 x [100 x i8]]* %10, i64 0, i64 %90
  %92 = getelementptr inbounds [100 x i8], [100 x i8]* %91, i64 0, i64 0
  %93 = call i32 (i8*, ...) @printf(i8* getelementptr inbounds ([4 x i8], [4 x i8]* @.str, i64 0, i64 0), i8* %92)
  %94 = load i32, i32* %7, align 4
  %95 = sext i32 %94 to i64
  %96 = getelementptr inbounds [100 x [100 x i8]], [100 x [100 x i8]]* %10, i64 0, i64 %95
  %97 = getelementptr inbounds [100 x i8], [100 x i8]* %96, i64 0, i64 0
  %98 = call i32 (i8*, ...) @printf(i8* getelementptr inbounds ([4 x i8], [4 x i8]* @.str, i64 0, i64 0), i8* %97)
  ret i32 0
}

declare dso_local i32 @getchar() #1

; Function Attrs: nounwind readonly
declare dso_local i64 @strlen(i8*) #2

declare dso_local i32 @printf(i8*, ...) #1


!llvm.module.flags = !{!0}
!llvm.ident = !{!1}

!0 = !{i32 1, !"wchar_size", i32 4}
!1 = !{!"clang version 10.0.0-4ubuntu1 "}
